target datalayout = "e-m:e-p270:32:32-p271:32:32-p272:64:64-i64:64-i128:128-f80:128-n8:16:32:64-S128"
target triple = "x86_64-pc-linux-gnu"

%"class.net::QuicPacketGenerator" = type { ptr, %"class.net::QuicPacketCreator", %"class.std::vector", i8, i8, i8, [5 x i8], %"struct.net::QuicAckFrame", %"struct.net::QuicStopWaitingFrame" }
%"class.net::QuicPacketCreator" = type { ptr, ptr, ptr, %"class.net::QuicPacketCreator::QuicRandomBoolSource", ptr, i8, i8, i8, i8, %"struct.std::array", i64, i64, i32, %"class.std::vector", i64, i64, %"struct.net::SerializedPacket", %"class.std::unordered_map" }
%"class.net::QuicPacketCreator::QuicRandomBoolSource" = type { ptr, i64, i64 }
%"struct.std::array" = type { [32 x i8] }
%"struct.net::SerializedPacket" = type { ptr, i16, %"class.std::vector", i8, i16, i8, i64, i8, i8, i8, i8, i8, i8, i8, i64, %"class.std::__cxx11::list" }
%"class.std::__cxx11::list" = type { %"class.std::__cxx11::_List_base" }
%"class.std::__cxx11::_List_base" = type { %"struct.std::__cxx11::_List_base<net::AckListenerWrapper, std::allocator<net::AckListenerWrapper>>::_List_impl" }
%"struct.std::__cxx11::_List_base<net::AckListenerWrapper, std::allocator<net::AckListenerWrapper>>::_List_impl" = type { %"struct.std::__detail::_List_node_header" }
%"struct.std::__detail::_List_node_header" = type { %"struct.std::__detail::_List_node_base", i64 }
%"struct.std::__detail::_List_node_base" = type { ptr, ptr }
%"class.std::unordered_map" = type { %"class.std::_Hashtable" }
%"class.std::_Hashtable" = type { ptr, i64, %"struct.std::__detail::_Hash_node_base", i64, %"struct.std::__detail::_Prime_rehash_policy", ptr }
%"struct.std::__detail::_Hash_node_base" = type { ptr }
%"struct.std::__detail::_Prime_rehash_policy" = type { float, i64 }
%"class.std::vector" = type { %"struct.std::_Vector_base" }
%"struct.std::_Vector_base" = type { %"struct.std::_Vector_base<net::QuicFrame, std::allocator<net::QuicFrame>>::_Vector_impl" }
%"struct.std::_Vector_base<net::QuicFrame, std::allocator<net::QuicFrame>>::_Vector_impl" = type { %"struct.std::_Vector_base<net::QuicFrame, std::allocator<net::QuicFrame>>::_Vector_impl_data" }
%"struct.std::_Vector_base<net::QuicFrame, std::allocator<net::QuicFrame>>::_Vector_impl_data" = type { ptr, ptr, ptr }
%"struct.net::QuicAckFrame" = type <{ i64, %"class.net::QuicTime::Delta", %"class.std::vector.8", %"class.net::PacketNumberQueue", i8, i8, i8, i8, [4 x i8] }>
%"class.net::QuicTime::Delta" = type { %"class.base::TimeDelta", i64 }
%"class.base::TimeDelta" = type { i64 }
%"class.std::vector.8" = type { %"struct.std::_Vector_base.9" }
%"struct.std::_Vector_base.9" = type { %"struct.std::_Vector_base<std::pair<unsigned long, net::QuicTime>, std::allocator<std::pair<unsigned long, net::QuicTime>>>::_Vector_impl" }
%"struct.std::_Vector_base<std::pair<unsigned long, net::QuicTime>, std::allocator<std::pair<unsigned long, net::QuicTime>>>::_Vector_impl" = type { %"struct.std::_Vector_base<std::pair<unsigned long, net::QuicTime>, std::allocator<std::pair<unsigned long, net::QuicTime>>>::_Vector_impl_data" }
%"struct.std::_Vector_base<std::pair<unsigned long, net::QuicTime>, std::allocator<std::pair<unsigned long, net::QuicTime>>>::_Vector_impl_data" = type { ptr, ptr, ptr }
%"class.net::PacketNumberQueue" = type { %"class.net::IntervalSet" }
%"class.net::IntervalSet" = type { %"class.std::set" }
%"class.std::set" = type { %"class.std::_Rb_tree" }
%"class.std::_Rb_tree" = type { %"struct.std::_Rb_tree<net::Interval<unsigned long>, net::Interval<unsigned long>, std::_Identity<net::Interval<unsigned long>>, net::IntervalSet<unsigned long>::IntervalComparator>::_Rb_tree_impl" }
%"struct.std::_Rb_tree<net::Interval<unsigned long>, net::Interval<unsigned long>, std::_Identity<net::Interval<unsigned long>>, net::IntervalSet<unsigned long>::IntervalComparator>::_Rb_tree_impl" = type { [8 x i8], %"struct.std::_Rb_tree_header" }
%"struct.std::_Rb_tree_header" = type { %"struct.std::_Rb_tree_node_base", i64 }
%"struct.std::_Rb_tree_node_base" = type { i32, ptr, ptr, ptr }
%"struct.net::QuicStopWaitingFrame" = type { i8, i8, i64 }

; Function Attrs: mustprogress nounwind uwtable
define linkonce_odr void @_ZNSt15__new_allocatorIN3net9QuicFrameEE10deallocateEPS1_m(ptr noundef nonnull align 1 dereferenceable(1) %0, ptr noundef %1, i64 noundef %2) #2 comdat align 2 {
  %4 = alloca ptr, align 8
  %5 = alloca ptr, align 8
  %6 = alloca i64, align 8
  store ptr %0, ptr %4, align 8, !tbaa !154
  store ptr %1, ptr %5, align 8, !tbaa !97
  store i64 %2, ptr %6, align 8, !tbaa !8
  %7 = load ptr, ptr %5, align 8, !tbaa !97
  call void @_ZdlPv(ptr noundef %7) #15
  ret void
}

; Function Attrs: mustprogress uwtable
define linkonce_odr void @_ZNSt16allocator_traitsISaIN3net9QuicFrameEEE10deallocateERS2_PS1_m(ptr noundef nonnull align 1 dereferenceable(1) %0, ptr noundef %1, i64 noundef %2) #0 comdat align 2 {
  %4 = alloca ptr, align 8
  %5 = alloca ptr, align 8
  %6 = alloca i64, align 8
  store ptr %0, ptr %4, align 8, !tbaa !150
  store ptr %1, ptr %5, align 8, !tbaa !97
  store i64 %2, ptr %6, align 8, !tbaa !8
  %7 = load ptr, ptr %4, align 8, !tbaa !150
  %8 = load ptr, ptr %5, align 8, !tbaa !97
  %9 = load i64, ptr %6, align 8, !tbaa !8
  call void @_ZNSt15__new_allocatorIN3net9QuicFrameEE10deallocateEPS1_m(ptr noundef nonnull align 1 dereferenceable(1) %7, ptr noundef %8, i64 noundef %9)
  ret void
}

; Function Attrs: mustprogress nounwind uwtable
define linkonce_odr void @_ZNSt12_Destroy_auxILb1EE9__destroyIPN3net9QuicFrameEEEvT_S5_(ptr noundef %0, ptr noundef %1) #2 comdat align 2 {
  %3 = alloca ptr, align 8
  %4 = alloca ptr, align 8
  store ptr %0, ptr %3, align 8, !tbaa !97
  store ptr %1, ptr %4, align 8, !tbaa !97
  ret void
}

; Function Attrs: mustprogress nounwind uwtable
define linkonce_odr void @_ZNSt15__new_allocatorIN3net9QuicFrameEED2Ev(ptr noundef nonnull align 1 dereferenceable(1) %0) unnamed_addr #2 comdat align 2 {
  %2 = alloca ptr, align 8
  store ptr %0, ptr %2, align 8, !tbaa !154
  ret void
}

; Function Attrs: mustprogress uwtable
define linkonce_odr void @_ZNSt12_Vector_baseIN3net9QuicFrameESaIS1_EE13_M_deallocateEPS1_m(ptr noundef nonnull align 8 dereferenceable(24) %0, ptr noundef %1, i64 noundef %2) #0 comdat align 2 {
  %4 = alloca ptr, align 8
  %5 = alloca ptr, align 8
  %6 = alloca i64, align 8
  store ptr %0, ptr %4, align 8, !tbaa !146
  store ptr %1, ptr %5, align 8, !tbaa !97
  store i64 %2, ptr %6, align 8, !tbaa !8
  %7 = load ptr, ptr %4, align 8
  %8 = load ptr, ptr %5, align 8, !tbaa !97
  %9 = icmp ne ptr %8, null
  br i1 %9, label %10, label %14

10:                                               ; preds = %3
  %11 = getelementptr inbounds nuw %"struct.std::_Vector_base", ptr %7, i32 0, i32 0
  %12 = load ptr, ptr %5, align 8, !tbaa !97
  %13 = load i64, ptr %6, align 8, !tbaa !8
  call void @_ZNSt16allocator_traitsISaIN3net9QuicFrameEEE10deallocateERS2_PS1_m(ptr noundef nonnull align 1 dereferenceable(1) %11, ptr noundef %12, i64 noundef %13)
  br label %14

14:                                               ; preds = %10, %3
  ret void
}

; Function Attrs: inlinehint mustprogress uwtable
define linkonce_odr void @_ZSt8_DestroyIPN3net9QuicFrameEEvT_S3_(ptr noundef %0, ptr noundef %1) #6 comdat {
  %3 = alloca ptr, align 8
  %4 = alloca ptr, align 8
  store ptr %0, ptr %3, align 8, !tbaa !97
  store ptr %1, ptr %4, align 8, !tbaa !97
  %5 = load ptr, ptr %3, align 8, !tbaa !97
  %6 = load ptr, ptr %4, align 8, !tbaa !97
  call void @_ZNSt12_Destroy_auxILb1EE9__destroyIPN3net9QuicFrameEEEvT_S5_(ptr noundef %5, ptr noundef %6)
  ret void
}

; Function Attrs: mustprogress nounwind uwtable
define linkonce_odr void @_ZNSt12_Vector_baseIN3net9QuicFrameESaIS1_EED2Ev(ptr noundef nonnull align 8 dereferenceable(24) %0) unnamed_addr #2 comdat align 2 personality ptr @__gxx_personality_v0 {
  %2 = alloca ptr, align 8
  store ptr %0, ptr %2, align 8, !tbaa !146
  %3 = load ptr, ptr %2, align 8
  %4 = getelementptr inbounds nuw %"struct.std::_Vector_base", ptr %3, i32 0, i32 0
  %5 = getelementptr inbounds nuw %"struct.std::_Vector_base<net::QuicFrame, std::allocator<net::QuicFrame>>::_Vector_impl_data", ptr %4, i32 0, i32 0
  %6 = load ptr, ptr %5, align 8, !tbaa !77
  %7 = getelementptr inbounds nuw %"struct.std::_Vector_base", ptr %3, i32 0, i32 0
  %8 = getelementptr inbounds nuw %"struct.std::_Vector_base<net::QuicFrame, std::allocator<net::QuicFrame>>::_Vector_impl_data", ptr %7, i32 0, i32 2
  %9 = load ptr, ptr %8, align 8, !tbaa !98
  %10 = getelementptr inbounds nuw %"struct.std::_Vector_base", ptr %3, i32 0, i32 0
  %11 = getelementptr inbounds nuw %"struct.std::_Vector_base<net::QuicFrame, std::allocator<net::QuicFrame>>::_Vector_impl_data", ptr %10, i32 0, i32 0
  %12 = load ptr, ptr %11, align 8, !tbaa !77
  %13 = ptrtoint ptr %9 to i64
  %14 = ptrtoint ptr %12 to i64
  %15 = sub i64 %13, %14
  %16 = sdiv exact i64 %15, 16
  invoke void @_ZNSt12_Vector_baseIN3net9QuicFrameESaIS1_EE13_M_deallocateEPS1_m(ptr noundef nonnull align 8 dereferenceable(24) %3, ptr noundef %6, i64 noundef %16)
          to label %17 unwind label %19

17:                                               ; preds = %1
  %18 = getelementptr inbounds nuw %"struct.std::_Vector_base", ptr %3, i32 0, i32 0
  call void @_ZNSt15__new_allocatorIN3net9QuicFrameEED2Ev(ptr noundef nonnull align 8 dereferenceable(24) %18) #13
  ret void

19:                                               ; preds = %1
  %20 = landingpad { ptr, i32 }
          catch ptr null
  %21 = extractvalue { ptr, i32 } %20, 0
  call void @__clang_call_terminate(ptr %21) #14
  unreachable
}

; Function Attrs: inlinehint mustprogress uwtable
define linkonce_odr void @_ZSt8_DestroyIPN3net9QuicFrameES1_EvT_S3_RSaIT0_E(ptr noundef %0, ptr noundef %1, ptr noundef nonnull align 1 dereferenceable(1) %2) #6 comdat {
  %4 = alloca ptr, align 8
  %5 = alloca ptr, align 8
  %6 = alloca ptr, align 8
  store ptr %0, ptr %4, align 8, !tbaa !97
  store ptr %1, ptr %5, align 8, !tbaa !97
  store ptr %2, ptr %6, align 8, !tbaa !150
  %7 = load ptr, ptr %4, align 8, !tbaa !97
  %8 = load ptr, ptr %5, align 8, !tbaa !97
  call void @_ZSt8_DestroyIPN3net9QuicFrameEEvT_S3_(ptr noundef %7, ptr noundef %8)
  ret void
}

; Function Attrs: mustprogress nounwind uwtable
define linkonce_odr noundef nonnull align 1 dereferenceable(1) ptr @_ZNSt12_Vector_baseIN3net9QuicFrameESaIS1_EE19_M_get_Tp_allocatorEv(ptr noundef nonnull align 8 dereferenceable(24) %0) #2 comdat align 2 {
  %2 = alloca ptr, align 8
  store ptr %0, ptr %2, align 8, !tbaa !146
  %3 = load ptr, ptr %2, align 8
  %4 = getelementptr inbounds nuw %"struct.std::_Vector_base", ptr %3, i32 0, i32 0
  ret ptr %4
}

; Function Attrs: mustprogress nounwind uwtable
define linkonce_odr void @_ZNSt6vectorIN3net9QuicFrameESaIS1_EED2Ev(ptr noundef nonnull align 8 dereferenceable(24) %0) unnamed_addr #2 comdat align 2 personality ptr @__gxx_personality_v0 {
  %2 = alloca ptr, align 8
  store ptr %0, ptr %2, align 8, !tbaa !75
  %3 = load ptr, ptr %2, align 8
  %4 = getelementptr inbounds nuw %"struct.std::_Vector_base", ptr %3, i32 0, i32 0
  %5 = getelementptr inbounds nuw %"struct.std::_Vector_base<net::QuicFrame, std::allocator<net::QuicFrame>>::_Vector_impl_data", ptr %4, i32 0, i32 0
  %6 = load ptr, ptr %5, align 8, !tbaa !77
  %7 = getelementptr inbounds nuw %"struct.std::_Vector_base", ptr %3, i32 0, i32 0
  %8 = getelementptr inbounds nuw %"struct.std::_Vector_base<net::QuicFrame, std::allocator<net::QuicFrame>>::_Vector_impl_data", ptr %7, i32 0, i32 1
  %9 = load ptr, ptr %8, align 8, !tbaa !78
  %10 = call noundef nonnull align 1 dereferenceable(1) ptr @_ZNSt12_Vector_baseIN3net9QuicFrameESaIS1_EE19_M_get_Tp_allocatorEv(ptr noundef nonnull align 8 dereferenceable(24) %3) #13
  invoke void @_ZSt8_DestroyIPN3net9QuicFrameES1_EvT_S3_RSaIT0_E(ptr noundef %6, ptr noundef %9, ptr noundef nonnull align 1 dereferenceable(1) %10)
          to label %11 unwind label %12

11:                                               ; preds = %1
  call void @_ZNSt12_Vector_baseIN3net9QuicFrameESaIS1_EED2Ev(ptr noundef nonnull align 8 dereferenceable(24) %3) #13
  ret void

12:                                               ; preds = %1
  %13 = landingpad { ptr, i32 }
          catch ptr null
  %14 = extractvalue { ptr, i32 } %13, 0
  call void @__clang_call_terminate(ptr %14) #14
  unreachable
}

; Function Attrs: mustprogress nounwind uwtable
define void @_ZN3net19QuicPacketGeneratorD2Ev(ptr noundef nonnull align 8 dereferenceable(472) %0) unnamed_addr #2 align 2 personality ptr @__gxx_personality_v0 {
  %2 = alloca ptr, align 8
  store ptr %0, ptr %2, align 8, !tbaa !3
  %3 = load ptr, ptr %2, align 8
  %4 = getelementptr inbounds nuw %"class.net::QuicPacketGenerator", ptr %3, i32 0, i32 2
  invoke void @_ZN3net9QuicUtils12DeleteFramesEPSt6vectorINS_9QuicFrameESaIS2_EE(ptr noundef %4)
          to label %5 unwind label %10

5:                                                ; preds = %1
  %6 = getelementptr inbounds nuw %"class.net::QuicPacketGenerator", ptr %3, i32 0, i32 8
  call void @_ZN3net20QuicStopWaitingFrameD1Ev(ptr noundef nonnull align 8 dereferenceable(16) %6) #13
  %7 = getelementptr inbounds nuw %"class.net::QuicPacketGenerator", ptr %3, i32 0, i32 7
  call void @_ZN3net12QuicAckFrameD1Ev(ptr noundef nonnull align 8 dereferenceable(100) %7) #13
  %8 = getelementptr inbounds nuw %"class.net::QuicPacketGenerator", ptr %3, i32 0, i32 2
  call void @_ZNSt6vectorIN3net9QuicFrameESaIS1_EED2Ev(ptr noundef nonnull align 8 dereferenceable(24) %8) #13
  %9 = getelementptr inbounds nuw %"class.net::QuicPacketGenerator", ptr %3, i32 0, i32 1
  call void @_ZN3net17QuicPacketCreatorD1Ev(ptr noundef nonnull align 8 dereferenceable(312) %9) #13
  ret void

10:                                               ; preds = %1
  %11 = landingpad { ptr, i32 }
          catch ptr null
  %12 = extractvalue { ptr, i32 } %11, 0
  call void @__clang_call_terminate(ptr %12) #14
  unreachable
}