; Function Attrs: mustprogress nounwind uwtable
define void @_ZN3net19QuicPacketGeneratorD2Ev(ptr noundef nonnull align 8 dereferenceable(472) %0) unnamed_addr #3 align 2 personality ptr @__gxx_personality_v0 {
  %2 = getelementptr inbounds nuw i8, ptr %0, i64 320
  invoke void @_ZN3net9QuicUtils12DeleteFramesEPSt6vectorINS_9QuicFrameESaIS2_EE(ptr noundef nonnull %2)
          to label %3 unwind label %9

3:                                                ; preds = %1
  %4 = getelementptr inbounds nuw i8, ptr %0, i64 456
  tail call void @_ZN3net20QuicStopWaitingFrameD1Ev(ptr noundef nonnull align 8 dereferenceable(16) %4) #16
  %5 = getelementptr inbounds nuw i8, ptr %0, i64 352
  tail call void @_ZN3net12QuicAckFrameD1Ev(ptr noundef nonnull align 8 dereferenceable(100) %5) #16
  %6 = load ptr, ptr %2, align 8, !tbaa !65
  %.not.i.i.i = icmp eq ptr %6, null
  br i1 %.not.i.i.i, label %_ZNSt6vectorIN3net9QuicFrameESaIS1_EED2Ev.exit, label %7

7:                                                ; preds = %3
  tail call void @_ZdlPv(ptr noundef nonnull %6) #17
  br label %_ZNSt6vectorIN3net9QuicFrameESaIS1_EED2Ev.exit

_ZNSt6vectorIN3net9QuicFrameESaIS1_EED2Ev.exit:   ; preds = %3, %7
  %8 = getelementptr inbounds nuw i8, ptr %0, i64 8
  tail call void @_ZN3net17QuicPacketCreatorD1Ev(ptr noundef nonnull align 8 dereferenceable(312) %8) #16
  ret void

9:                                                ; preds = %1
  %10 = landingpad { ptr, i32 }
          catch ptr null
  %11 = extractvalue { ptr, i32 } %10, 0
  tail call void @__clang_call_terminate(ptr %11) #18
  unreachable
}